; Function Attrs: nounwind uwtable
define internal fastcc range(i32 -16512, 1) i32 @rsa_check_context(ptr noundef %0, i32 noundef range(i32 0, 2) %1) unnamed_addr #0 {
  %3 = getelementptr inbounds nuw i8, ptr %0, i64 8
  %4 = load i64, ptr %3, align 8, !tbaa !12
  %5 = getelementptr inbounds nuw i8, ptr %0, i64 16
  %6 = tail call i64 @mbedtls_mpi_size(ptr noundef nonnull %5) #14
  %.not = icmp eq i64 %4, %6
  br i1 %.not, label %7, label %50

7:                                                ; preds = %2
  %8 = load i64, ptr %3, align 8, !tbaa !12
  %9 = icmp ugt i64 %8, 1024
  br i1 %9, label %50, label %10

10:                                               ; preds = %7
  %11 = tail call i32 @mbedtls_mpi_cmp_int(ptr noundef nonnull %5, i64 noundef 0) #14
  %12 = icmp slt i32 %11, 1
  br i1 %12, label %50, label %13

13:                                               ; preds = %10
  %14 = tail call i32 @mbedtls_mpi_get_bit(ptr noundef nonnull %5, i64 noundef 0) #14
  %15 = icmp eq i32 %14, 0
  br i1 %15, label %50, label %16

16:                                               ; preds = %13
  %.not16 = icmp eq i32 %1, 0
  br i1 %.not16, label %31, label %17

17:                                               ; preds = %16
  %18 = getelementptr inbounds nuw i8, ptr %0, i64 64
  %19 = tail call i32 @mbedtls_mpi_cmp_int(ptr noundef nonnull %18, i64 noundef 0) #14
  %20 = icmp slt i32 %19, 1
  br i1 %20, label %50, label %21

21:                                               ; preds = %17
  %22 = tail call i32 @mbedtls_mpi_get_bit(ptr noundef nonnull %18, i64 noundef 0) #14
  %23 = icmp eq i32 %22, 0
  br i1 %23, label %50, label %24

24:                                               ; preds = %21
  %25 = getelementptr inbounds nuw i8, ptr %0, i64 80
  %26 = tail call i32 @mbedtls_mpi_cmp_int(ptr noundef nonnull %25, i64 noundef 0) #14
  %27 = icmp slt i32 %26, 1
  br i1 %27, label %50, label %28

28:                                               ; preds = %24
  %29 = tail call i32 @mbedtls_mpi_get_bit(ptr noundef nonnull %25, i64 noundef 0) #14
  %30 = icmp eq i32 %29, 0
  br i1 %30, label %50, label %.thread

31:                                               ; preds = %16
  %32 = getelementptr inbounds nuw i8, ptr %0, i64 32
  %33 = tail call i32 @mbedtls_mpi_cmp_int(ptr noundef nonnull %32, i64 noundef 0) #14
  %34 = icmp slt i32 %33, 1
  br i1 %34, label %50, label %.critedge

.thread:                                          ; preds = %28
  %35 = getelementptr inbounds nuw i8, ptr %0, i64 32
  %36 = tail call i32 @mbedtls_mpi_cmp_int(ptr noundef nonnull %35, i64 noundef 0) #14
  %37 = icmp slt i32 %36, 1
  br i1 %37, label %50, label %38

38:                                               ; preds = %.thread
  %39 = getelementptr inbounds nuw i8, ptr %0, i64 96
  %40 = tail call i32 @mbedtls_mpi_cmp_int(ptr noundef nonnull %39, i64 noundef 0) #14
  %41 = icmp slt i32 %40, 1
  br i1 %41, label %50, label %42

42:                                               ; preds = %38
  %43 = getelementptr inbounds nuw i8, ptr %0, i64 112
  %44 = tail call i32 @mbedtls_mpi_cmp_int(ptr noundef nonnull %43, i64 noundef 0) #14
  %45 = icmp slt i32 %44, 1
  br i1 %45, label %50, label %46

46:                                               ; preds = %42
  %47 = getelementptr inbounds nuw i8, ptr %0, i64 128
  %48 = tail call i32 @mbedtls_mpi_cmp_int(ptr noundef nonnull %47, i64 noundef 0) #14
  %49 = icmp slt i32 %48, 1
  br i1 %49, label %50, label %.critedge

.critedge:                                        ; preds = %31, %46
  br label %50

50:                                               ; preds = %.thread, %46, %38, %42, %31, %17, %21, %24, %28, %10, %13, %2, %7, %.critedge
  %.0 = phi i32 [ 0, %.critedge ], [ -16512, %7 ], [ -16512, %2 ], [ -16512, %13 ], [ -16512, %10 ], [ -16512, %28 ], [ -16512, %24 ], [ -16512, %21 ], [ -16512, %17 ], [ -16512, %31 ], [ -16512, %42 ], [ -16512, %38 ], [ -16512, %46 ], [ -16512, %.thread ]
  ret i32 %.0
}